; Function Attrs: nounwind uwtable
define ptr @l_List_foldr___at_Lean_Omega_IntList_gcd___spec__1(ptr noundef %0, ptr noundef %1) local_unnamed_addr #0 {
  %3 = ptrtoint ptr %1 to i64
  %4 = and i64 %3, 1
  %.not.i17 = icmp eq i64 %4, 0
  br i1 %.not.i17, label %8, label %5

5:                                                ; preds = %2
  %6 = lshr i64 %3, 1
  %7 = trunc i64 %6 to i32
  br label %lean_obj_tag.exit

8:                                                ; preds = %2
  %9 = getelementptr i8, ptr %1, i64 4
  %.val.i = load i32, ptr %9, align 4
  %10 = lshr i32 %.val.i, 24
  br label %lean_obj_tag.exit

lean_obj_tag.exit:                                ; preds = %5, %8
  %.0.i = phi i32 [ %7, %5 ], [ %10, %8 ]
  %11 = icmp eq i32 %.0.i, 0
  br i1 %11, label %12, label %21

12:                                               ; preds = %lean_obj_tag.exit
  %13 = ptrtoint ptr %0 to i64
  %14 = and i64 %13, 1
  %.not23 = icmp eq i64 %14, 0
  br i1 %.not23, label %15, label %lean_inc.exit

15:                                               ; preds = %12
  %.val.i18 = load i32, ptr %0, align 4, !tbaa !8
  %16 = icmp sgt i32 %.val.i18, 0
  br i1 %16, label %17, label %19, !prof !11

17:                                               ; preds = %15
  %18 = add nuw i32 %.val.i18, 1
  store i32 %18, ptr %0, align 4, !tbaa !8
  br label %lean_inc.exit

19:                                               ; preds = %15
  %.not.i19 = icmp eq i32 %.val.i18, 0
  br i1 %.not.i19, label %lean_inc.exit, label %20

20:                                               ; preds = %19
  tail call void @lean_inc_ref_cold(ptr noundef nonnull %0) #3
  br label %lean_inc.exit

21:                                               ; preds = %lean_obj_tag.exit
  %22 = getelementptr inbounds nuw i8, ptr %1, i64 8
  %23 = load ptr, ptr %22, align 8, !tbaa !4
  %24 = getelementptr inbounds nuw i8, ptr %1, i64 16
  %25 = load ptr, ptr %24, align 8, !tbaa !4
  %26 = tail call ptr @l_List_foldr___at_Lean_Omega_IntList_gcd___spec__1(ptr noundef %0, ptr noundef %25)
  %27 = ptrtoint ptr %23 to i64
  %28 = and i64 %27, 1
  %.not.i.i = icmp eq i64 %28, 0
  br i1 %.not.i.i, label %lean_int_lt.exit.i, label %29, !prof !12

29:                                               ; preds = %21
  %30 = and i64 %27, 4294967296
  %.not.i20 = icmp eq i64 %30, 0
  br i1 %.not.i20, label %lean_nat_abs.exit, label %32

lean_int_lt.exit.i:                               ; preds = %21
  %31 = tail call zeroext i1 @lean_int_big_lt(ptr noundef %23, ptr noundef nonnull inttoptr (i64 1 to ptr)) #3
  br i1 %31, label %44, label %48

32:                                               ; preds = %29
  %33 = shl i64 %27, 31
  %34 = ashr i64 %33, 32
  %35 = sub nsw i64 0, %34
  %36 = add nsw i64 %34, 2147483647
  %37 = icmp ult i64 %36, 4294967296
  br i1 %37, label %38, label %42, !prof !11

38:                                               ; preds = %32
  %39 = shl nuw nsw i64 %35, 1
  %40 = or disjoint i64 %39, 1
  %41 = inttoptr i64 %40 to ptr
  br label %lean_int_neg.exit.i

42:                                               ; preds = %32
  %43 = tail call ptr @lean_big_int64_to_int(i64 noundef range(i64 -4611686016279904256, 4611686018427387905) %35) #3
  br label %lean_int_neg.exit.i

44:                                               ; preds = %lean_int_lt.exit.i
  %45 = tail call ptr @lean_int_big_neg(ptr noundef %23) #3
  br label %lean_int_neg.exit.i

lean_int_neg.exit.i:                              ; preds = %44, %42, %38
  %.0.i6.i = phi ptr [ %45, %44 ], [ %41, %38 ], [ %43, %42 ]
  %46 = ptrtoint ptr %.0.i6.i to i64
  %47 = and i64 %46, 1
  %.not.i7.i = icmp eq i64 %47, 0
  br i1 %.not.i7.i, label %lean_int_to_nat.exit.sink.split.i, label %lean_nat_abs.exit

48:                                               ; preds = %lean_int_lt.exit.i
  %.val.i.i = load i32, ptr %23, align 4, !tbaa !8
  %49 = icmp sgt i32 %.val.i.i, 0
  br i1 %49, label %50, label %52, !prof !11

50:                                               ; preds = %48
  %51 = add nuw i32 %.val.i.i, 1
  store i32 %51, ptr %23, align 4, !tbaa !8
  br label %lean_int_to_nat.exit.sink.split.i

52:                                               ; preds = %48
  %.not.i9.i = icmp eq i32 %.val.i.i, 0
  br i1 %.not.i9.i, label %lean_int_to_nat.exit.sink.split.i, label %53

53:                                               ; preds = %52
  tail call void @lean_inc_ref_cold(ptr noundef nonnull %23) #3
  br label %lean_int_to_nat.exit.sink.split.i

lean_int_to_nat.exit.sink.split.i:                ; preds = %53, %52, %50, %lean_int_neg.exit.i
  %.sink.i = phi ptr [ %.0.i6.i, %lean_int_neg.exit.i ], [ %23, %53 ], [ %23, %52 ], [ %23, %50 ]
  %54 = tail call ptr @lean_big_int_to_nat(ptr noundef %.sink.i) #3
  br label %lean_nat_abs.exit

lean_nat_abs.exit:                                ; preds = %29, %lean_int_neg.exit.i, %lean_int_to_nat.exit.sink.split.i
  %.0.i21 = phi ptr [ %.0.i6.i, %lean_int_neg.exit.i ], [ %23, %29 ], [ %54, %lean_int_to_nat.exit.sink.split.i ]
  %55 = tail call ptr @lean_nat_gcd(ptr noundef %.0.i21, ptr noundef %26) #3
  %56 = ptrtoint ptr %26 to i64
  %57 = and i64 %56, 1
  %.not = icmp eq i64 %57, 0
  br i1 %.not, label %58, label %lean_dec.exit14

58:                                               ; preds = %lean_nat_abs.exit
  %59 = load i32, ptr %26, align 4, !tbaa !8
  %60 = icmp sgt i32 %59, 1
  br i1 %60, label %61, label %63, !prof !11

61:                                               ; preds = %58
  %62 = add nsw i32 %59, -1
  store i32 %62, ptr %26, align 4, !tbaa !8
  br label %lean_dec.exit14

63:                                               ; preds = %58
  %.not.i = icmp eq i32 %59, 0
  br i1 %.not.i, label %lean_dec.exit14, label %64

64:                                               ; preds = %63
  tail call void @lean_dec_ref_cold(ptr noundef nonnull %26) #3
  br label %lean_dec.exit14

lean_dec.exit14:                                  ; preds = %64, %63, %61, %lean_nat_abs.exit
  %65 = ptrtoint ptr %.0.i21 to i64
  %66 = and i64 %65, 1
  %.not22 = icmp eq i64 %66, 0
  br i1 %.not22, label %67, label %lean_inc.exit

67:                                               ; preds = %lean_dec.exit14
  %68 = load i32, ptr %.0.i21, align 4, !tbaa !8
  %69 = icmp sgt i32 %68, 1
  br i1 %69, label %70, label %72, !prof !11

70:                                               ; preds = %67
  %71 = add nsw i32 %68, -1
  store i32 %71, ptr %.0.i21, align 4, !tbaa !8
  br label %lean_inc.exit

72:                                               ; preds = %67
  %.not.i15 = icmp eq i32 %68, 0
  br i1 %.not.i15, label %lean_inc.exit, label %73

73:                                               ; preds = %72
  tail call void @lean_dec_ref_cold(ptr noundef nonnull %.0.i21) #3
  br label %lean_inc.exit

lean_inc.exit:                                    ; preds = %lean_dec.exit14, %70, %72, %73, %12, %17, %19, %20
  %.0 = phi ptr [ %0, %20 ], [ %0, %19 ], [ %0, %17 ], [ %0, %12 ], [ %55, %73 ], [ %55, %72 ], [ %55, %70 ], [ %55, %lean_dec.exit14 ]
  ret ptr %.0
}